target datalayout = "e-m:e-p270:32:32-p271:32:32-p272:64:64-i64:64-i128:128-f80:128-n8:16:32:64-S128"
target triple = "x86_64-pc-linux-gnu"

%struct.Vec_Int_t_ = type { i32, i32, ptr }

; Function Attrs: nounwind uwtable
define internal i32 @Vec_IntEntry(ptr noundef %0, i32 noundef %1) #0 {
  %3 = alloca ptr, align 8
  %4 = alloca i32, align 4
  store ptr %0, ptr %3, align 8
  store i32 %1, ptr %4, align 4
  %5 = load ptr, ptr %3, align 8
  %6 = getelementptr inbounds %struct.Vec_Int_t_, ptr %5, i32 0, i32 2
  %7 = load ptr, ptr %6, align 8
  %8 = load i32, ptr %4, align 4
  %9 = sext i32 %8 to i64
  %10 = getelementptr inbounds i32, ptr %7, i64 %9
  %11 = load i32, ptr %10, align 4
  ret i32 %11
}

; Function Attrs: nounwind uwtable
define internal i32 @Vec_IntSize(ptr noundef %0) #0 {
  %2 = alloca ptr, align 8
  store ptr %0, ptr %2, align 8
  %3 = load ptr, ptr %2, align 8
  %4 = getelementptr inbounds %struct.Vec_Int_t_, ptr %3, i32 0, i32 1
  %5 = load i32, ptr %4, align 4
  ret i32 %5
}

; Function Attrs: nounwind uwtable
define void @Vec_IntInsertOrder(ptr noundef %0, ptr noundef %1, i32 noundef %2, i32 noundef %3) #0 {
  %5 = alloca ptr, align 8
  %6 = alloca ptr, align 8
  %7 = alloca i32, align 4
  %8 = alloca i32, align 4
  %9 = alloca i32, align 4
  store ptr %0, ptr %5, align 8
  store ptr %1, ptr %6, align 8
  store i32 %2, ptr %7, align 4
  store i32 %3, ptr %8, align 4
  %10 = load ptr, ptr %6, align 8
  %11 = call i32 @Vec_IntSize(ptr noundef %10)
  %12 = sub nsw i32 %11, 1
  store i32 %12, ptr %9, align 4
  br label %13

13:                                               ; preds = %24, %4
  %14 = load i32, ptr %9, align 4
  %15 = icmp sge i32 %14, 0
  br i1 %15, label %16, label %27

16:                                               ; preds = %13
  %17 = load ptr, ptr %6, align 8
  %18 = load i32, ptr %9, align 4
  %19 = call i32 @Vec_IntEntry(ptr noundef %17, i32 noundef %18)
  %20 = load i32, ptr %8, align 4
  %21 = icmp sge i32 %19, %20
  br i1 %21, label %22, label %23

22:                                               ; preds = %16
  br label %27

23:                                               ; preds = %16
  br label %24

24:                                               ; preds = %23
  %25 = load i32, ptr %9, align 4
  %26 = add nsw i32 %25, -1
  store i32 %26, ptr %9, align 4
  br label %13, !llvm.loop !28

27:                                               ; preds = %22, %13
  %28 = load ptr, ptr %5, align 8
  %29 = load i32, ptr %9, align 4
  %30 = add nsw i32 %29, 1
  %31 = load i32, ptr %7, align 4
  call void @Vec_IntInsert(ptr noundef %28, i32 noundef %30, i32 noundef %31)
  %32 = load ptr, ptr %6, align 8
  %33 = load i32, ptr %9, align 4
  %34 = add nsw i32 %33, 1
  %35 = load i32, ptr %8, align 4
  call void @Vec_IntInsert(ptr noundef %32, i32 noundef %34, i32 noundef %35)
  ret void
}