; Function Attrs: nounwind uwtable
define void @Vec_IntInsertOrder(ptr noundef captures(none) %0, ptr noundef captures(none) %1, i32 noundef %2, i32 noundef %3) local_unnamed_addr #2 {
  %5 = getelementptr i8, ptr %1, i64 4
  %.val = load i32, ptr %5, align 4
  %6 = getelementptr i8, ptr %1, i64 8
  %7 = zext i32 %.val to i64
  %smin = tail call i32 @llvm.smin.i32(i32 %.val, i32 0)
  br label %8

8:                                                ; preds = %11, %4
  %indvars.iv = phi i64 [ %12, %11 ], [ %7, %4 ]
  %9 = trunc nuw i64 %indvars.iv to i32
  %10 = icmp sgt i32 %9, 0
  br i1 %10, label %11, label %15

11:                                               ; preds = %8
  %12 = add nsw i64 %indvars.iv, -1
  %.val11 = load ptr, ptr %6, align 8
  %13 = getelementptr inbounds nuw i32, ptr %.val11, i64 %12
  %14 = load i32, ptr %13, align 4
  %.not = icmp slt i32 %14, %3
  br i1 %.not, label %8, label %15, !llvm.loop !28

15:                                               ; preds = %11, %8
  %.0.in.lcssa = phi i32 [ %9, %11 ], [ %smin, %8 ]
  tail call fastcc void @Vec_IntInsert(ptr noundef %0, i32 noundef %.0.in.lcssa, i32 noundef %2)
  tail call fastcc void @Vec_IntInsert(ptr noundef %1, i32 noundef %.0.in.lcssa, i32 noundef %3)
  ret void
}